; Function Attrs: mustprogress nofree norecurse nosync nounwind willreturn memory(none) uwtable
define internal fastcc noundef zeroext i1 @char_is_alphanum_(i8 noundef signext %0) unnamed_addr #6 {
  switch i8 %0, label %2 [
    i8 97, label %3
    i8 98, label %3
    i8 99, label %3
    i8 100, label %3
    i8 101, label %3
    i8 102, label %3
    i8 103, label %3
    i8 104, label %3
    i8 105, label %3
    i8 106, label %3
    i8 107, label %3
    i8 108, label %3
    i8 109, label %3
    i8 110, label %3
    i8 111, label %3
    i8 112, label %3
    i8 113, label %3
    i8 114, label %3
    i8 115, label %3
    i8 116, label %3
    i8 117, label %3
    i8 118, label %3
    i8 119, label %3
    i8 120, label %3
    i8 121, label %3
    i8 122, label %3
    i8 65, label %3
    i8 66, label %3
    i8 67, label %3
    i8 68, label %3
    i8 69, label %3
    i8 70, label %3
    i8 71, label %3
    i8 72, label %3
    i8 73, label %3
    i8 74, label %3
    i8 75, label %3
    i8 76, label %3
    i8 77, label %3
    i8 78, label %3
    i8 79, label %3
    i8 80, label %3
    i8 81, label %3
    i8 82, label %3
    i8 83, label %3
    i8 84, label %3
    i8 85, label %3
    i8 86, label %3
    i8 87, label %3
    i8 88, label %3
    i8 89, label %3
    i8 90, label %3
    i8 48, label %3
    i8 49, label %3
    i8 50, label %3
    i8 51, label %3
    i8 52, label %3
    i8 53, label %3
    i8 54, label %3
    i8 55, label %3
    i8 56, label %3
    i8 57, label %3
    i8 95, label %3
  ]

2:                                                ; preds = %1
  br label %3

3:                                                ; preds = %1, %1, %1, %1, %1, %1, %1, %1, %1, %1, %1, %1, %1, %1, %1, %1, %1, %1, %1, %1, %1, %1, %1, %1, %1, %1, %1, %1, %1, %1, %1, %1, %1, %1, %1, %1, %1, %1, %1, %1, %1, %1, %1, %1, %1, %1, %1, %1, %1, %1, %1, %1, %1, %1, %1, %1, %1, %1, %1, %1, %1, %1, %1, %2
  %.0 = phi i1 [ false, %2 ], [ true, %1 ], [ true, %1 ], [ true, %1 ], [ true, %1 ], [ true, %1 ], [ true, %1 ], [ true, %1 ], [ true, %1 ], [ true, %1 ], [ true, %1 ], [ true, %1 ], [ true, %1 ], [ true, %1 ], [ true, %1 ], [ true, %1 ], [ true, %1 ], [ true, %1 ], [ true, %1 ], [ true, %1 ], [ true, %1 ], [ true, %1 ], [ true, %1 ], [ true, %1 ], [ true, %1 ], [ true, %1 ], [ true, %1 ], [ true, %1 ], [ true, %1 ], [ true, %1 ], [ true, %1 ], [ true, %1 ], [ true, %1 ], [ true, %1 ], [ true, %1 ], [ true, %1 ], [ true, %1 ], [ true, %1 ], [ true, %1 ], [ true, %1 ], [ true, %1 ], [ true, %1 ], [ true, %1 ], [ true, %1 ], [ true, %1 ], [ true, %1 ], [ true, %1 ], [ true, %1 ], [ true, %1 ], [ true, %1 ], [ true, %1 ], [ true, %1 ], [ true, %1 ], [ true, %1 ], [ true, %1 ], [ true, %1 ], [ true, %1 ], [ true, %1 ], [ true, %1 ], [ true, %1 ], [ true, %1 ], [ true, %1 ], [ true, %1 ], [ true, %1 ]
  ret i1 %.0
}